; Function Attrs: nounwind uwtable
define ptr @l_Lean_LocalContext_getUnusedName(ptr noundef readonly captures(none) %0, ptr noundef %1) local_unnamed_addr #2 {
  %3 = tail call ptr @lean_erase_macro_scopes(ptr noundef %1) #8
  %4 = getelementptr inbounds nuw i8, ptr %0, i64 16
  %5 = load ptr, ptr %4, align 8, !tbaa !9
  %6 = tail call ptr @l_Lean_PersistentArray_findSomeRevM_x3f___at_Lean_LocalContext_findFromUserName_x3f___spec__1(ptr noundef %3, ptr noundef %5)
  %7 = ptrtoint ptr %6 to i64
  %8 = and i64 %7, 1
  %.not.i6.i = icmp eq i64 %8, 0
  br i1 %.not.i6.i, label %lean_obj_tag.exit.thread.i, label %l_Lean_LocalContext_usesUserName.exit

lean_obj_tag.exit.thread.i:                       ; preds = %2
  %9 = getelementptr i8, ptr %6, i64 4
  %.val.i.i = load i32, ptr %9, align 4
  %10 = icmp ult i32 %.val.i.i, 16777216
  br i1 %10, label %lean_dec.exit, label %.thread.i

.thread.i:                                        ; preds = %lean_obj_tag.exit.thread.i
  %11 = load i32, ptr %6, align 4, !tbaa !4
  %12 = icmp sgt i32 %11, 1
  br i1 %12, label %13, label %15, !prof !11

13:                                               ; preds = %.thread.i
  %14 = add nsw i32 %11, -1
  store i32 %14, ptr %6, align 4, !tbaa !4
  br label %l_Lean_LocalContext_usesUserName.exit.thread

15:                                               ; preds = %.thread.i
  %.not.i.i = icmp eq i32 %11, 0
  br i1 %.not.i.i, label %l_Lean_LocalContext_usesUserName.exit.thread, label %16

16:                                               ; preds = %15
  tail call void @lean_dec_ref_cold(ptr noundef nonnull %6) #8
  br label %l_Lean_LocalContext_usesUserName.exit.thread

l_Lean_LocalContext_usesUserName.exit:            ; preds = %2
  %17 = and i64 %7, 8589934590
  %.not = icmp eq i64 %17, 0
  br i1 %.not, label %lean_dec.exit, label %l_Lean_LocalContext_usesUserName.exit.thread

l_Lean_LocalContext_usesUserName.exit.thread:     ; preds = %13, %15, %16, %l_Lean_LocalContext_usesUserName.exit
  %18 = tail call ptr @l___private_Lean_LocalContext_0__Lean_LocalContext_getUnusedNameAux(ptr noundef nonnull %0, ptr noundef %3, ptr noundef nonnull inttoptr (i64 3 to ptr))
  %19 = getelementptr inbounds nuw i8, ptr %18, i64 8
  %20 = load ptr, ptr %19, align 8, !tbaa !9
  %21 = ptrtoint ptr %20 to i64
  %22 = and i64 %21, 1
  %.not16 = icmp eq i64 %22, 0
  br i1 %.not16, label %23, label %lean_inc.exit

23:                                               ; preds = %l_Lean_LocalContext_usesUserName.exit.thread
  %.val.i = load i32, ptr %20, align 4, !tbaa !4
  %24 = icmp sgt i32 %.val.i, 0
  br i1 %24, label %25, label %27, !prof !11

25:                                               ; preds = %23
  %26 = add nuw i32 %.val.i, 1
  store i32 %26, ptr %20, align 4, !tbaa !4
  br label %lean_inc.exit

27:                                               ; preds = %23
  %.not.i12 = icmp eq i32 %.val.i, 0
  br i1 %.not.i12, label %lean_inc.exit, label %28

28:                                               ; preds = %27
  tail call void @lean_inc_ref_cold(ptr noundef nonnull %20) #8
  br label %lean_inc.exit

lean_inc.exit:                                    ; preds = %28, %27, %25, %l_Lean_LocalContext_usesUserName.exit.thread
  %29 = ptrtoint ptr %18 to i64
  %30 = and i64 %29, 1
  %.not17 = icmp eq i64 %30, 0
  br i1 %.not17, label %31, label %lean_dec.exit

31:                                               ; preds = %lean_inc.exit
  %32 = load i32, ptr %18, align 4, !tbaa !4
  %33 = icmp sgt i32 %32, 1
  br i1 %33, label %34, label %36, !prof !11

34:                                               ; preds = %31
  %35 = add nsw i32 %32, -1
  store i32 %35, ptr %18, align 4, !tbaa !4
  br label %lean_dec.exit

36:                                               ; preds = %31
  %.not.i = icmp eq i32 %32, 0
  br i1 %.not.i, label %lean_dec.exit, label %37

37:                                               ; preds = %36
  tail call void @lean_dec_ref_cold(ptr noundef nonnull %18) #8
  br label %lean_dec.exit

lean_dec.exit:                                    ; preds = %lean_obj_tag.exit.thread.i, %lean_inc.exit, %34, %36, %37, %l_Lean_LocalContext_usesUserName.exit
  %.0 = phi ptr [ %3, %l_Lean_LocalContext_usesUserName.exit ], [ %20, %37 ], [ %20, %36 ], [ %20, %34 ], [ %20, %lean_inc.exit ], [ %3, %lean_obj_tag.exit.thread.i ]
  ret ptr %.0
}